; ModuleID = 'source-C-CXX/57/316.cpp'
source_filename = "source-C-CXX/57/316.cpp"
target datalayout = "e-m:e-p270:32:32-p271:32:32-p272:64:64-i64:64-f80:128-n8:16:32:64-S128"
target triple = "x86_64-pc-linux-gnu"

%"class.std::ios_base::Init" = type { i8 }
%"class.std::basic_istream" = type { i32 (...)**, i64, %"class.std::basic_ios" }
%"class.std::basic_ios" = type { %"class.std::ios_base", %"class.std::basic_ostream"*, i8, i8, %"class.std::basic_streambuf"*, %"class.std::ctype"*, %"class.std::num_put"*, %"class.std::num_get"* }
%"class.std::ios_base" = type { i32 (...)**, i64, i64, i32, i32, i32, %"struct.std::ios_base::_Callback_list"*, %"struct.std::ios_base::_Words", [8 x %"struct.std::ios_base::_Words"], i32, %"struct.std::ios_base::_Words"*, %"class.std::locale" }
%"struct.std::ios_base::_Callback_list" = type { %"struct.std::ios_base::_Callback_list"*, void (i32, %"class.std::ios_base"*, i32)*, i32, i32 }
%"struct.std::ios_base::_Words" = type { i8*, i64 }
%"class.std::locale" = type { %"class.std::locale::_Impl"* }
%"class.std::locale::_Impl" = type { i32, %"class.std::locale::facet"**, i64, %"class.std::locale::facet"**, i8** }
%"class.std::locale::facet" = type <{ i32 (...)**, i32, [4 x i8] }>
%"class.std::basic_ostream" = type { i32 (...)**, %"class.std::basic_ios" }
%"class.std::basic_streambuf" = type { i32 (...)**, i8*, i8*, i8*, i8*, i8*, i8*, %"class.std::locale" }
%"class.std::ctype" = type <{ %"class.std::locale::facet.base", [4 x i8], %struct.__locale_struct*, i8, [7 x i8], i32*, i32*, i16*, i8, [256 x i8], [256 x i8], i8, [6 x i8] }>
%"class.std::locale::facet.base" = type <{ i32 (...)**, i32 }>
%struct.__locale_struct = type { [13 x %struct.__locale_data*], i16*, i32*, i32*, [13 x i8*] }
%struct.__locale_data = type opaque
%"class.std::num_put" = type { %"class.std::locale::facet.base", [4 x i8] }
%"class.std::num_get" = type { %"class.std::locale::facet.base", [4 x i8] }

@_ZStL8__ioinit = internal global %"class.std::ios_base::Init" zeroinitializer, align 1
@__dso_handle = external hidden global i8
@_ZSt3cin = external global %"class.std::basic_istream", align 8
@_ZSt4cout = external global %"class.std::basic_ostream", align 8
@llvm.global_ctors = appending global [1 x { i32, void ()*, i8* }] [{ i32, void ()*, i8* } { i32 65535, void ()* @_GLOBAL__sub_I_316.cpp, i8* null }]

declare void @_ZNSt8ios_base4InitC1Ev(%"class.std::ios_base::Init"* nonnull align 1 dereferenceable(1)) unnamed_addr #0

; Function Attrs: nounwind
declare void @_ZNSt8ios_base4InitD1Ev(%"class.std::ios_base::Init"* nonnull align 1 dereferenceable(1)) unnamed_addr #1

; Function Attrs: nofree nounwind
declare i32 @__cxa_atexit(void (i8*)*, i8*, i8*) local_unnamed_addr #2

; Function Attrs: mustprogress norecurse sspstrong uwtable
define dso_local i32 @main() local_unnamed_addr #3 {
  %1 = alloca i32, align 4
  %2 = alloca [1001 x i8], align 16
  %3 = bitcast i32* %1 to i8*
  call void @llvm.lifetime.start.p0i8(i64 4, i8* nonnull %3) #7
  %4 = call nonnull align 8 dereferenceable(16) %"class.std::basic_istream"* @_ZNSirsERi(%"class.std::basic_istream"* nonnull align 8 dereferenceable(16) @_ZSt3cin, i32* nonnull align 4 dereferenceable(4) %1)
  %5 = getelementptr inbounds [1001 x i8], [1001 x i8]* %2, i64 0, i64 0
  call void @llvm.lifetime.start.p0i8(i64 1001, i8* nonnull %5) #7
  %6 = getelementptr inbounds [1001 x i8], [1001 x i8]* %2, i64 0, i64 1
  %7 = load i8*, i8** bitcast (%"class.std::basic_istream"* @_ZSt3cin to i8**), align 8, !tbaa !5
  %8 = getelementptr i8, i8* %7, i64 -24
  %9 = bitcast i8* %8 to i64*
  %10 = load i64, i64* %9, align 8
  %11 = add nsw i64 %10, 240
  %12 = getelementptr inbounds i8, i8* bitcast (%"class.std::basic_istream"* @_ZSt3cin to i8*), i64 %11
  %13 = bitcast i8* %12 to %"class.std::ctype"**
  %14 = load %"class.std::ctype"*, %"class.std::ctype"** %13, align 8, !tbaa !8
  %15 = icmp eq %"class.std::ctype"* %14, null
  br i1 %15, label %16, label %17

16:                                               ; preds = %108, %0
  call void @_ZSt16__throw_bad_castv() #8
  unreachable

17:                                               ; preds = %0, %108
  %18 = phi %"class.std::ctype"* [ %116, %108 ], [ %14, %0 ]
  %19 = phi i32 [ %48, %108 ], [ 0, %0 ]
  %20 = getelementptr inbounds %"class.std::ctype", %"class.std::ctype"* %18, i64 0, i32 8
  %21 = load i8, i8* %20, align 8, !tbaa !13
  %22 = icmp eq i8 %21, 0
  br i1 %22, label %26, label %23

23:                                               ; preds = %17
  %24 = getelementptr inbounds %"class.std::ctype", %"class.std::ctype"* %18, i64 0, i32 9, i64 10
  %25 = load i8, i8* %24, align 1, !tbaa !15
  br label %32

26:                                               ; preds = %17
  call void @_ZNKSt5ctypeIcE13_M_widen_initEv(%"class.std::ctype"* nonnull align 8 dereferenceable(570) %18)
  %27 = bitcast %"class.std::ctype"* %18 to i8 (%"class.std::ctype"*, i8)***
  %28 = load i8 (%"class.std::ctype"*, i8)**, i8 (%"class.std::ctype"*, i8)*** %27, align 8, !tbaa !5
  %29 = getelementptr inbounds i8 (%"class.std::ctype"*, i8)*, i8 (%"class.std::ctype"*, i8)** %28, i64 6
  %30 = load i8 (%"class.std::ctype"*, i8)*, i8 (%"class.std::ctype"*, i8)** %29, align 8
  %31 = call signext i8 %30(%"class.std::ctype"* nonnull align 8 dereferenceable(570) %18, i8 signext 10)
  br label %32

32:                                               ; preds = %23, %26
  %33 = phi i8 [ %25, %23 ], [ %31, %26 ]
  %34 = call nonnull align 8 dereferenceable(16) %"class.std::basic_istream"* @_ZNSi7getlineEPclc(%"class.std::basic_istream"* nonnull align 8 dereferenceable(16) @_ZSt3cin, i8* nonnull %5, i64 1001, i8 signext %33)
  %35 = bitcast %"class.std::basic_istream"* %34 to i8**
  %36 = load i8*, i8** %35, align 8, !tbaa !5
  %37 = getelementptr i8, i8* %36, i64 -24
  %38 = bitcast i8* %37 to i64*
  %39 = load i64, i64* %38, align 8
  %40 = bitcast %"class.std::basic_istream"* %34 to i8*
  %41 = add nsw i64 %39, 32
  %42 = getelementptr inbounds i8, i8* %40, i64 %41
  %43 = bitcast i8* %42 to i32*
  %44 = load i32, i32* %43, align 8, !tbaa !16
  %45 = and i32 %44, 5
  %46 = icmp eq i32 %45, 0
  br i1 %46, label %47, label %118

47:                                               ; preds = %32
  %48 = add nuw nsw i32 %19, 1
  %49 = load i8, i8* %5, align 16, !tbaa !15
  %50 = and i8 %49, -33
  %51 = add i8 %50, -65
  %52 = icmp ult i8 %51, 26
  %53 = icmp eq i8 %49, 95
  %54 = select i1 %52, i1 true, i1 %53
  br i1 %54, label %55, label %74

55:                                               ; preds = %47
  %56 = load i8, i8* %6, align 1, !tbaa !15
  %57 = icmp eq i8 %56, 0
  br i1 %57, label %74, label %58

58:                                               ; preds = %55, %69
  %59 = phi i64 [ %70, %69 ], [ 1, %55 ]
  %60 = phi i8 [ %72, %69 ], [ %56, %55 ]
  %61 = and i8 %60, -33
  %62 = add i8 %61, -65
  %63 = icmp ult i8 %62, 26
  br i1 %63, label %69, label %64

64:                                               ; preds = %58
  %65 = add i8 %60, -48
  %66 = icmp ult i8 %65, 10
  %67 = icmp eq i8 %60, 95
  %68 = or i1 %67, %66
  br i1 %68, label %69, label %74

69:                                               ; preds = %64, %58
  %70 = add nuw i64 %59, 1
  %71 = getelementptr inbounds [1001 x i8], [1001 x i8]* %2, i64 0, i64 %70
  %72 = load i8, i8* %71, align 1, !tbaa !15
  %73 = icmp eq i8 %72, 0
  br i1 %73, label %74, label %58, !llvm.loop !24

74:                                               ; preds = %69, %64, %55, %47
  %75 = phi i32 [ 0, %47 ], [ 1, %55 ], [ 1, %69 ], [ 0, %64 ]
  %76 = icmp eq i32 %19, 0
  br i1 %76, label %108, label %77

77:                                               ; preds = %74
  %78 = call nonnull align 8 dereferenceable(8) %"class.std::basic_ostream"* @_ZNSolsEi(%"class.std::basic_ostream"* nonnull align 8 dereferenceable(8) @_ZSt4cout, i32 %75)
  %79 = bitcast %"class.std::basic_ostream"* %78 to i8**
  %80 = load i8*, i8** %79, align 8, !tbaa !5
  %81 = getelementptr i8, i8* %80, i64 -24
  %82 = bitcast i8* %81 to i64*
  %83 = load i64, i64* %82, align 8
  %84 = bitcast %"class.std::basic_ostream"* %78 to i8*
  %85 = add nsw i64 %83, 240
  %86 = getelementptr inbounds i8, i8* %84, i64 %85
  %87 = bitcast i8* %86 to %"class.std::ctype"**
  %88 = load %"class.std::ctype"*, %"class.std::ctype"** %87, align 8, !tbaa !8
  %89 = icmp eq %"class.std::ctype"* %88, null
  br i1 %89, label %90, label %91

90:                                               ; preds = %77
  call void @_ZSt16__throw_bad_castv() #8
  unreachable

91:                                               ; preds = %77
  %92 = getelementptr inbounds %"class.std::ctype", %"class.std::ctype"* %88, i64 0, i32 8
  %93 = load i8, i8* %92, align 8, !tbaa !13
  %94 = icmp eq i8 %93, 0
  br i1 %94, label %98, label %95

95:                                               ; preds = %91
  %96 = getelementptr inbounds %"class.std::ctype", %"class.std::ctype"* %88, i64 0, i32 9, i64 10
  %97 = load i8, i8* %96, align 1, !tbaa !15
  br label %104

98:                                               ; preds = %91
  call void @_ZNKSt5ctypeIcE13_M_widen_initEv(%"class.std::ctype"* nonnull align 8 dereferenceable(570) %88)
  %99 = bitcast %"class.std::ctype"* %88 to i8 (%"class.std::ctype"*, i8)***
  %100 = load i8 (%"class.std::ctype"*, i8)**, i8 (%"class.std::ctype"*, i8)*** %99, align 8, !tbaa !5
  %101 = getelementptr inbounds i8 (%"class.std::ctype"*, i8)*, i8 (%"class.std::ctype"*, i8)** %100, i64 6
  %102 = load i8 (%"class.std::ctype"*, i8)*, i8 (%"class.std::ctype"*, i8)** %101, align 8
  %103 = call signext i8 %102(%"class.std::ctype"* nonnull align 8 dereferenceable(570) %88, i8 signext 10)
  br label %104

104:                                              ; preds = %95, %98
  %105 = phi i8 [ %97, %95 ], [ %103, %98 ]
  %106 = call nonnull align 8 dereferenceable(8) %"class.std::basic_ostream"* @_ZNSo3putEc(%"class.std::basic_ostream"* nonnull align 8 dereferenceable(8) %78, i8 signext %105)
  %107 = call nonnull align 8 dereferenceable(8) %"class.std::basic_ostream"* @_ZNSo5flushEv(%"class.std::basic_ostream"* nonnull align 8 dereferenceable(8) %106)
  br label %108

108:                                              ; preds = %104, %74
  %109 = load i8*, i8** bitcast (%"class.std::basic_istream"* @_ZSt3cin to i8**), align 8, !tbaa !5
  %110 = getelementptr i8, i8* %109, i64 -24
  %111 = bitcast i8* %110 to i64*
  %112 = load i64, i64* %111, align 8
  %113 = add nsw i64 %112, 240
  %114 = getelementptr inbounds i8, i8* bitcast (%"class.std::basic_istream"* @_ZSt3cin to i8*), i64 %113
  %115 = bitcast i8* %114 to %"class.std::ctype"**
  %116 = load %"class.std::ctype"*, %"class.std::ctype"** %115, align 8, !tbaa !8
  %117 = icmp eq %"class.std::ctype"* %116, null
  br i1 %117, label %16, label %17, !llvm.loop !26

118:                                              ; preds = %32
  call void @llvm.lifetime.end.p0i8(i64 1001, i8* nonnull %5) #7
  call void @llvm.lifetime.end.p0i8(i64 4, i8* nonnull %3) #7
  ret i32 0
}

; Function Attrs: argmemonly mustprogress nofree nosync nounwind willreturn
declare void @llvm.lifetime.start.p0i8(i64 immarg, i8* nocapture) #4

declare nonnull align 8 dereferenceable(16) %"class.std::basic_istream"* @_ZNSirsERi(%"class.std::basic_istream"* nonnull align 8 dereferenceable(16), i32* nonnull align 4 dereferenceable(4)) local_unnamed_addr #0

; Function Attrs: argmemonly mustprogress nofree nosync nounwind willreturn
declare void @llvm.lifetime.end.p0i8(i64 immarg, i8* nocapture) #4

declare nonnull align 8 dereferenceable(8) %"class.std::basic_ostream"* @_ZNSolsEi(%"class.std::basic_ostream"* nonnull align 8 dereferenceable(8), i32) local_unnamed_addr #0

declare nonnull align 8 dereferenceable(16) %"class.std::basic_istream"* @_ZNSi7getlineEPclc(%"class.std::basic_istream"* nonnull align 8 dereferenceable(16), i8*, i64, i8 signext) local_unnamed_addr #0

; Function Attrs: noreturn
declare void @_ZSt16__throw_bad_castv() local_unnamed_addr #5

declare void @_ZNKSt5ctypeIcE13_M_widen_initEv(%"class.std::ctype"* nonnull align 8 dereferenceable(570)) local_unnamed_addr #0

declare nonnull align 8 dereferenceable(8) %"class.std::basic_ostream"* @_ZNSo3putEc(%"class.std::basic_ostream"* nonnull align 8 dereferenceable(8), i8 signext) local_unnamed_addr #0

declare nonnull align 8 dereferenceable(8) %"class.std::basic_ostream"* @_ZNSo5flushEv(%"class.std::basic_ostream"* nonnull align 8 dereferenceable(8)) local_unnamed_addr #0

; Function Attrs: sspstrong uwtable
define internal void @_GLOBAL__sub_I_316.cpp() #6 section ".text.startup" {
  tail call void @_ZNSt8ios_base4InitC1Ev(%"class.std::ios_base::Init"* nonnull align 1 dereferenceable(1) @_ZStL8__ioinit)
  %1 = tail call i32 @__cxa_atexit(void (i8*)* bitcast (void (%"class.std::ios_base::Init"*)* @_ZNSt8ios_base4InitD1Ev to void (i8*)*), i8* getelementptr inbounds (%"class.std::ios_base::Init", %"class.std::ios_base::Init"* @_ZStL8__ioinit, i64 0, i32 0), i8* nonnull @__dso_handle) #7
  ret void
}


!llvm.module.flags = !{!0, !1, !2, !3}
!llvm.ident = !{!4}

!0 = !{i32 1, !"wchar_size", i32 4}
!1 = !{i32 7, !"PIC Level", i32 2}
!2 = !{i32 7, !"PIE Level", i32 2}
!3 = !{i32 7, !"uwtable", i32 1}
!4 = !{!"clang version 13.0.0"}
!5 = !{!6, !6, i64 0}
!6 = !{!"vtable pointer", !7, i64 0}
!7 = !{!"Simple C++ TBAA"}
!8 = !{!9, !10, i64 240}
!9 = !{!"_ZTSSt9basic_iosIcSt11char_traitsIcEE", !10, i64 216, !11, i64 224, !12, i64 225, !10, i64 232, !10, i64 240, !10, i64 248, !10, i64 256}
!10 = !{!"any pointer", !11, i64 0}
!11 = !{!"omnipotent char", !7, i64 0}
!12 = !{!"bool", !11, i64 0}
!13 = !{!14, !11, i64 56}
!14 = !{!"_ZTSSt5ctypeIcE", !10, i64 16, !12, i64 24, !10, i64 32, !10, i64 40, !10, i64 48, !11, i64 56, !11, i64 57, !11, i64 313, !11, i64 569}
!15 = !{!11, !11, i64 0}
!16 = !{!17, !20, i64 32}
!17 = !{!"_ZTSSt8ios_base", !18, i64 8, !18, i64 16, !19, i64 24, !20, i64 28, !20, i64 32, !10, i64 40, !21, i64 48, !11, i64 64, !22, i64 192, !10, i64 200, !23, i64 208}
!18 = !{!"long", !11, i64 0}
!19 = !{!"_ZTSSt13_Ios_Fmtflags", !11, i64 0}
!20 = !{!"_ZTSSt12_Ios_Iostate", !11, i64 0}
!21 = !{!"_ZTSNSt8ios_base6_WordsE", !10, i64 0, !18, i64 8}
!22 = !{!"int", !11, i64 0}
!23 = !{!"_ZTSSt6locale", !10, i64 0}
!24 = distinct !{!24, !25}
!25 = !{!"llvm.loop.mustprogress"}
!26 = distinct !{!26, !25}
